target datalayout = "e-m:e-p270:32:32-p271:32:32-p272:64:64-i64:64-i128:128-f80:128-n8:16:32:64-S128"
target triple = "x86_64-pc-linux-gnu"

%struct._tvbparse_wanted_t = type { i32, ptr, %union.anon, i32, i32, i32, ptr, ptr, ptr }
%union.anon = type { %struct.anon.2 }
%struct.anon.2 = type { ptr, ptr, ptr }
%struct._tvbparse_t = type { ptr, ptr, i32, i32, ptr, ptr, i32 }
%struct._tvbparse_elem_t = type { i32, ptr, ptr, i32, i32, ptr, ptr, ptr, ptr, ptr }

; Function Attrs: null_pointer_is_valid sspstrong uwtable
define internal ptr @new_tok(ptr noundef %0, i32 noundef %1, i32 noundef %2, i32 noundef %3, ptr noundef %4) #0 {
  %6 = alloca ptr, align 8
  %7 = alloca i32, align 4
  %8 = alloca i32, align 4
  %9 = alloca i32, align 4
  %10 = alloca ptr, align 8
  %11 = alloca ptr, align 8
  store ptr %0, ptr %6, align 8
  store i32 %1, ptr %7, align 4
  store i32 %2, ptr %8, align 4
  store i32 %3, ptr %9, align 4
  store ptr %4, ptr %10, align 8
  call void @llvm.lifetime.start.p0(i64 8, ptr %11) #11
  %12 = load ptr, ptr %6, align 8
  %13 = getelementptr inbounds nuw %struct._tvbparse_t, ptr %12, i32 0, i32 0
  %14 = load ptr, ptr %13, align 8
  %15 = call noalias ptr @wmem_alloc(ptr noundef %14, i64 noundef 72) #12
  store ptr %15, ptr %11, align 8
  %16 = load ptr, ptr %6, align 8
  %17 = load ptr, ptr %11, align 8
  %18 = getelementptr inbounds nuw %struct._tvbparse_elem_t, ptr %17, i32 0, i32 1
  store ptr %16, ptr %18, align 8
  %19 = load ptr, ptr %6, align 8
  %20 = getelementptr inbounds nuw %struct._tvbparse_t, ptr %19, i32 0, i32 1
  %21 = load ptr, ptr %20, align 8
  %22 = load ptr, ptr %11, align 8
  %23 = getelementptr inbounds nuw %struct._tvbparse_elem_t, ptr %22, i32 0, i32 2
  store ptr %21, ptr %23, align 8
  %24 = load i32, ptr %7, align 4
  %25 = load ptr, ptr %11, align 8
  %26 = getelementptr inbounds nuw %struct._tvbparse_elem_t, ptr %25, i32 0, i32 0
  store i32 %24, ptr %26, align 8
  %27 = load i32, ptr %8, align 4
  %28 = load ptr, ptr %11, align 8
  %29 = getelementptr inbounds nuw %struct._tvbparse_elem_t, ptr %28, i32 0, i32 3
  store i32 %27, ptr %29, align 8
  %30 = load i32, ptr %9, align 4
  %31 = load ptr, ptr %11, align 8
  %32 = getelementptr inbounds nuw %struct._tvbparse_elem_t, ptr %31, i32 0, i32 4
  store i32 %30, ptr %32, align 4
  %33 = load ptr, ptr %11, align 8
  %34 = getelementptr inbounds nuw %struct._tvbparse_elem_t, ptr %33, i32 0, i32 5
  store ptr null, ptr %34, align 8
  %35 = load ptr, ptr %11, align 8
  %36 = getelementptr inbounds nuw %struct._tvbparse_elem_t, ptr %35, i32 0, i32 6
  store ptr null, ptr %36, align 8
  %37 = load ptr, ptr %11, align 8
  %38 = getelementptr inbounds nuw %struct._tvbparse_elem_t, ptr %37, i32 0, i32 7
  store ptr null, ptr %38, align 8
  %39 = load ptr, ptr %10, align 8
  %40 = load ptr, ptr %11, align 8
  %41 = getelementptr inbounds nuw %struct._tvbparse_elem_t, ptr %40, i32 0, i32 9
  store ptr %39, ptr %41, align 8
  %42 = load ptr, ptr %11, align 8
  %43 = load ptr, ptr %11, align 8
  %44 = getelementptr inbounds nuw %struct._tvbparse_elem_t, ptr %43, i32 0, i32 8
  store ptr %42, ptr %44, align 8
  %45 = load ptr, ptr %11, align 8
  call void @llvm.lifetime.end.p0(i64 8, ptr %11) #11
  ret ptr %45
}

; Function Attrs: null_pointer_is_valid sspstrong uwtable
define internal i32 @cond_some(ptr noundef %0, i32 noundef %1, ptr noundef %2, ptr noundef %3) #0 {
  %5 = alloca i32, align 4
  %6 = alloca ptr, align 8
  %7 = alloca i32, align 4
  %8 = alloca ptr, align 8
  %9 = alloca ptr, align 8
  %10 = alloca i32, align 4
  %11 = alloca i32, align 4
  %12 = alloca ptr, align 8
  %13 = alloca i32, align 4
  %14 = alloca ptr, align 8
  %15 = alloca i32, align 4
  store ptr %0, ptr %6, align 8
  store i32 %1, ptr %7, align 4
  store ptr %2, ptr %8, align 8
  store ptr %3, ptr %9, align 8
  call void @llvm.lifetime.start.p0(i64 4, ptr %10) #11
  store i32 0, ptr %10, align 4
  call void @llvm.lifetime.start.p0(i64 4, ptr %11) #11
  %16 = load i32, ptr %7, align 4
  store i32 %16, ptr %11, align 4
  call void @llvm.lifetime.start.p0(i64 8, ptr %12) #11
  store ptr null, ptr %12, align 8
  %17 = load i32, ptr %7, align 4
  %18 = load ptr, ptr %6, align 8
  %19 = getelementptr inbounds nuw %struct._tvbparse_t, ptr %18, i32 0, i32 3
  %20 = load i32, ptr %19, align 4
  %21 = icmp sgt i32 %17, %20
  br i1 %21, label %22, label %23

22:                                               ; preds = %4
  store i32 -1, ptr %5, align 4
  store i32 1, ptr %13, align 4
  br label %164

23:                                               ; preds = %4
  %24 = load ptr, ptr %6, align 8
  %25 = getelementptr inbounds nuw %struct._tvbparse_t, ptr %24, i32 0, i32 6
  %26 = load i32, ptr %25, align 8
  %27 = add i32 %26, 1
  store i32 %27, ptr %25, align 8
  %28 = icmp sgt i32 %27, 100
  br i1 %28, label %29, label %30

29:                                               ; preds = %23
  store i32 -1, ptr %5, align 4
  store i32 1, ptr %13, align 4
  br label %164

30:                                               ; preds = %23
  %31 = load ptr, ptr %8, align 8
  %32 = getelementptr inbounds nuw %struct._tvbparse_wanted_t, ptr %31, i32 0, i32 4
  %33 = load i32, ptr %32, align 4
  %34 = icmp eq i32 %33, 0
  br i1 %34, label %35, label %43

35:                                               ; preds = %30
  %36 = load ptr, ptr %6, align 8
  %37 = load ptr, ptr %8, align 8
  %38 = getelementptr inbounds nuw %struct._tvbparse_wanted_t, ptr %37, i32 0, i32 0
  %39 = load i32, ptr %38, align 8
  %40 = load i32, ptr %7, align 4
  %41 = load ptr, ptr %8, align 8
  %42 = call ptr @new_tok(ptr noundef %36, i32 noundef %39, i32 noundef %40, i32 noundef 0, ptr noundef %41)
  store ptr %42, ptr %12, align 8
  br label %43

43:                                               ; preds = %35, %30
  br label %44

44:                                               ; preds = %146, %43
  %45 = load i32, ptr %10, align 4
  %46 = load ptr, ptr %8, align 8
  %47 = getelementptr inbounds nuw %struct._tvbparse_wanted_t, ptr %46, i32 0, i32 5
  %48 = load i32, ptr %47, align 8
  %49 = icmp ult i32 %45, %48
  br i1 %49, label %50, label %147

50:                                               ; preds = %44
  call void @llvm.lifetime.start.p0(i64 8, ptr %14) #11
  store ptr null, ptr %14, align 8
  call void @llvm.lifetime.start.p0(i64 4, ptr %15) #11
  %51 = load i32, ptr %7, align 4
  %52 = load ptr, ptr %6, align 8
  %53 = getelementptr inbounds nuw %struct._tvbparse_t, ptr %52, i32 0, i32 3
  %54 = load i32, ptr %53, align 4
  %55 = icmp sgt i32 %51, %54
  br i1 %55, label %56, label %61

56:                                               ; preds = %50
  %57 = load ptr, ptr %6, align 8
  %58 = getelementptr inbounds nuw %struct._tvbparse_t, ptr %57, i32 0, i32 6
  %59 = load i32, ptr %58, align 8
  %60 = add i32 %59, -1
  store i32 %60, ptr %58, align 8
  store i32 -1, ptr %5, align 4
  store i32 1, ptr %13, align 4
  br label %144

61:                                               ; preds = %50
  %62 = load ptr, ptr %8, align 8
  %63 = getelementptr inbounds nuw %struct._tvbparse_wanted_t, ptr %62, i32 0, i32 2
  %64 = load ptr, ptr %63, align 8
  %65 = getelementptr inbounds nuw %struct._tvbparse_wanted_t, ptr %64, i32 0, i32 1
  %66 = load ptr, ptr %65, align 8
  %67 = load ptr, ptr %6, align 8
  %68 = load i32, ptr %7, align 4
  %69 = load ptr, ptr %8, align 8
  %70 = getelementptr inbounds nuw %struct._tvbparse_wanted_t, ptr %69, i32 0, i32 2
  %71 = load ptr, ptr %70, align 8
  %72 = call i32 %66(ptr noundef %67, i32 noundef %68, ptr noundef %71, ptr noundef %14)
  store i32 %72, ptr %15, align 4
  %73 = load i32, ptr %15, align 4
  %74 = icmp sge i32 %73, 0
  br i1 %74, label %75, label %137

75:                                               ; preds = %61
  %76 = load ptr, ptr %12, align 8
  %77 = icmp ne ptr %76, null
  br i1 %77, label %78, label %120

78:                                               ; preds = %75
  %79 = load ptr, ptr %14, align 8
  %80 = getelementptr inbounds nuw %struct._tvbparse_elem_t, ptr %79, i32 0, i32 4
  %81 = load i32, ptr %80, align 4
  %82 = icmp ne i32 %81, 0
  br i1 %82, label %83, label %97

83:                                               ; preds = %78
  %84 = load ptr, ptr %14, align 8
  %85 = getelementptr inbounds nuw %struct._tvbparse_elem_t, ptr %84, i32 0, i32 3
  %86 = load i32, ptr %85, align 8
  %87 = load ptr, ptr %12, align 8
  %88 = getelementptr inbounds nuw %struct._tvbparse_elem_t, ptr %87, i32 0, i32 3
  %89 = load i32, ptr %88, align 8
  %90 = sub i32 %86, %89
  %91 = load ptr, ptr %14, align 8
  %92 = getelementptr inbounds nuw %struct._tvbparse_elem_t, ptr %91, i32 0, i32 4
  %93 = load i32, ptr %92, align 4
  %94 = add i32 %90, %93
  %95 = load ptr, ptr %12, align 8
  %96 = getelementptr inbounds nuw %struct._tvbparse_elem_t, ptr %95, i32 0, i32 4
  store i32 %94, ptr %96, align 4
  br label %97

97:                                               ; preds = %83, %78
  %98 = load ptr, ptr %12, align 8
  %99 = getelementptr inbounds nuw %struct._tvbparse_elem_t, ptr %98, i32 0, i32 6
  %100 = load ptr, ptr %99, align 8
  %101 = icmp ne ptr %100, null
  br i1 %101, label %102, label %115

102:                                              ; preds = %97
  %103 = load ptr, ptr %14, align 8
  %104 = load ptr, ptr %12, align 8
  %105 = getelementptr inbounds nuw %struct._tvbparse_elem_t, ptr %104, i32 0, i32 6
  %106 = load ptr, ptr %105, align 8
  %107 = getelementptr inbounds nuw %struct._tvbparse_elem_t, ptr %106, i32 0, i32 8
  %108 = load ptr, ptr %107, align 8
  %109 = getelementptr inbounds nuw %struct._tvbparse_elem_t, ptr %108, i32 0, i32 7
  store ptr %103, ptr %109, align 8
  %110 = load ptr, ptr %14, align 8
  %111 = load ptr, ptr %12, align 8
  %112 = getelementptr inbounds nuw %struct._tvbparse_elem_t, ptr %111, i32 0, i32 6
  %113 = load ptr, ptr %112, align 8
  %114 = getelementptr inbounds nuw %struct._tvbparse_elem_t, ptr %113, i32 0, i32 8
  store ptr %110, ptr %114, align 8
  br label %119

115:                                              ; preds = %97
  %116 = load ptr, ptr %14, align 8
  %117 = load ptr, ptr %12, align 8
  %118 = getelementptr inbounds nuw %struct._tvbparse_elem_t, ptr %117, i32 0, i32 6
  store ptr %116, ptr %118, align 8
  br label %119

119:                                              ; preds = %115, %102
  br label %136

120:                                              ; preds = %75
  %121 = load ptr, ptr %6, align 8
  %122 = load ptr, ptr %8, align 8
  %123 = getelementptr inbounds nuw %struct._tvbparse_wanted_t, ptr %122, i32 0, i32 0
  %124 = load i32, ptr %123, align 8
  %125 = load ptr, ptr %14, align 8
  %126 = getelementptr inbounds nuw %struct._tvbparse_elem_t, ptr %125, i32 0, i32 3
  %127 = load i32, ptr %126, align 8
  %128 = load ptr, ptr %14, align 8
  %129 = getelementptr inbounds nuw %struct._tvbparse_elem_t, ptr %128, i32 0, i32 4
  %130 = load i32, ptr %129, align 4
  %131 = load ptr, ptr %8, align 8
  %132 = call ptr @new_tok(ptr noundef %121, i32 noundef %124, i32 noundef %127, i32 noundef %130, ptr noundef %131)
  store ptr %132, ptr %12, align 8
  %133 = load ptr, ptr %14, align 8
  %134 = load ptr, ptr %12, align 8
  %135 = getelementptr inbounds nuw %struct._tvbparse_elem_t, ptr %134, i32 0, i32 6
  store ptr %133, ptr %135, align 8
  br label %136

136:                                              ; preds = %120, %119
  br label %138

137:                                              ; preds = %61
  store i32 3, ptr %13, align 4
  br label %144

138:                                              ; preds = %136
  %139 = load i32, ptr %15, align 4
  %140 = load i32, ptr %7, align 4
  %141 = add i32 %140, %139
  store i32 %141, ptr %7, align 4
  %142 = load i32, ptr %10, align 4
  %143 = add i32 %142, 1
  store i32 %143, ptr %10, align 4
  store i32 0, ptr %13, align 4
  br label %144

144:                                              ; preds = %138, %137, %56
  call void @llvm.lifetime.end.p0(i64 4, ptr %15) #11
  call void @llvm.lifetime.end.p0(i64 8, ptr %14) #11
  %145 = load i32, ptr %13, align 4
  switch i32 %145, label %164 [
    i32 0, label %146
    i32 3, label %147
  ]

146:                                              ; preds = %144
  br label %44, !llvm.loop !20

147:                                              ; preds = %144, %44
  %148 = load ptr, ptr %6, align 8
  %149 = getelementptr inbounds nuw %struct._tvbparse_t, ptr %148, i32 0, i32 6
  %150 = load i32, ptr %149, align 8
  %151 = add i32 %150, -1
  store i32 %151, ptr %149, align 8
  %152 = load i32, ptr %10, align 4
  %153 = load ptr, ptr %8, align 8
  %154 = getelementptr inbounds nuw %struct._tvbparse_wanted_t, ptr %153, i32 0, i32 4
  %155 = load i32, ptr %154, align 4
  %156 = icmp ult i32 %152, %155
  br i1 %156, label %157, label %158

157:                                              ; preds = %147
  store i32 -1, ptr %5, align 4
  store i32 1, ptr %13, align 4
  br label %164

158:                                              ; preds = %147
  %159 = load ptr, ptr %12, align 8
  %160 = load ptr, ptr %9, align 8
  store ptr %159, ptr %160, align 8
  %161 = load i32, ptr %7, align 4
  %162 = load i32, ptr %11, align 4
  %163 = sub i32 %161, %162
  store i32 %163, ptr %5, align 4
  store i32 1, ptr %13, align 4
  br label %164

164:                                              ; preds = %158, %157, %144, %29, %22
  call void @llvm.lifetime.end.p0(i64 8, ptr %12) #11
  call void @llvm.lifetime.end.p0(i64 4, ptr %11) #11
  call void @llvm.lifetime.end.p0(i64 4, ptr %10) #11
  %165 = load i32, ptr %5, align 4
  ret i32 %165
}