; Function Attrs: null_pointer_is_valid sspstrong uwtable
define internal i32 @cond_some(ptr noundef %0, i32 noundef %1, ptr noundef %2, ptr noundef writeonly captures(none) %3) #0 {
  %5 = alloca ptr, align 8
  %6 = getelementptr inbounds nuw i8, ptr %0, i64 20
  %7 = load i32, ptr %6, align 4
  %8 = icmp sgt i32 %1, %7
  br i1 %8, label %99, label %9

9:                                                ; preds = %4
  %10 = getelementptr inbounds nuw i8, ptr %0, i64 40
  %11 = load i32, ptr %10, align 8
  %12 = add i32 %11, 1
  store i32 %12, ptr %10, align 8
  %13 = icmp sgt i32 %12, 100
  br i1 %13, label %99, label %14

14:                                               ; preds = %9
  %15 = getelementptr inbounds nuw i8, ptr %2, i64 44
  %16 = load i32, ptr %15, align 4
  %17 = icmp eq i32 %16, 0
  br i1 %17, label %18, label %30

18:                                               ; preds = %14
  %19 = load i32, ptr %2, align 8
  %20 = load ptr, ptr %0, align 8
  %21 = tail call noalias dereferenceable_or_null(72) ptr @wmem_alloc(ptr noundef %20, i64 noundef 72) #11
  %22 = getelementptr inbounds nuw i8, ptr %21, i64 8
  store ptr %0, ptr %22, align 8
  %23 = getelementptr inbounds nuw i8, ptr %0, i64 8
  %24 = load ptr, ptr %23, align 8
  %25 = getelementptr inbounds nuw i8, ptr %21, i64 16
  store ptr %24, ptr %25, align 8
  store i32 %19, ptr %21, align 8
  %26 = getelementptr inbounds nuw i8, ptr %21, i64 24
  store i32 %1, ptr %26, align 8
  %27 = getelementptr inbounds nuw i8, ptr %21, i64 28
  %28 = getelementptr inbounds nuw i8, ptr %21, i64 64
  tail call void @llvm.memset.p0.i64(ptr noundef nonnull align 4 dereferenceable(28) %27, i8 0, i64 28, i1 false)
  store ptr %2, ptr %28, align 8
  %29 = getelementptr inbounds nuw i8, ptr %21, i64 56
  store ptr %21, ptr %29, align 8
  br label %30

30:                                               ; preds = %18, %14
  %.042 = phi ptr [ %21, %18 ], [ null, %14 ]
  %31 = getelementptr inbounds nuw i8, ptr %2, i64 48
  %32 = load i32, ptr %31, align 8
  %.not80 = icmp eq i32 %32, 0
  br i1 %.not80, label %.loopexit, label %.lr.ph

.lr.ph:                                           ; preds = %30
  %33 = getelementptr inbounds nuw i8, ptr %2, i64 16
  %34 = getelementptr inbounds nuw i8, ptr %0, i64 8
  br label %35

35:                                               ; preds = %.lr.ph, %88
  %.14377 = phi ptr [ %.042, %.lr.ph ], [ %.4, %88 ]
  %.04576 = phi i32 [ %1, %.lr.ph ], [ %89, %88 ]
  %.04875 = phi i32 [ 0, %.lr.ph ], [ %90, %88 ]
  call void @llvm.lifetime.start.p0(i64 8, ptr nonnull %5) #12
  store ptr null, ptr %5, align 8
  %36 = load i32, ptr %6, align 4
  %37 = icmp sgt i32 %.04576, %36
  br i1 %37, label %.thread, label %40

.thread:                                          ; preds = %35
  %38 = load i32, ptr %10, align 8
  %39 = add i32 %38, -1
  store i32 %39, ptr %10, align 8
  call void @llvm.lifetime.end.p0(i64 8, ptr nonnull %5) #12
  br label %99

40:                                               ; preds = %35
  %41 = load ptr, ptr %33, align 8
  %42 = getelementptr inbounds nuw i8, ptr %41, i64 8
  %43 = load ptr, ptr %42, align 8
  %44 = call i32 %43(ptr noundef %0, i32 noundef %.04576, ptr noundef %41, ptr noundef nonnull %5)
  %45 = icmp sgt i32 %44, -1
  br i1 %45, label %46, label %.thread61

.thread61:                                        ; preds = %40
  call void @llvm.lifetime.end.p0(i64 8, ptr nonnull %5) #12
  br label %.loopexit

46:                                               ; preds = %40
  %.not = icmp eq ptr %.14377, null
  br i1 %.not, label %69, label %47

47:                                               ; preds = %46
  %48 = load ptr, ptr %5, align 8
  %49 = getelementptr inbounds nuw i8, ptr %48, i64 28
  %50 = load i32, ptr %49, align 4
  %.not55 = icmp eq i32 %50, 0
  br i1 %.not55, label %59, label %51

51:                                               ; preds = %47
  %52 = getelementptr inbounds nuw i8, ptr %48, i64 24
  %53 = load i32, ptr %52, align 8
  %54 = getelementptr inbounds nuw i8, ptr %.14377, i64 24
  %55 = load i32, ptr %54, align 8
  %56 = add i32 %53, %50
  %57 = sub i32 %56, %55
  %58 = getelementptr inbounds nuw i8, ptr %.14377, i64 28
  store i32 %57, ptr %58, align 4
  br label %59

59:                                               ; preds = %51, %47
  %60 = getelementptr inbounds nuw i8, ptr %.14377, i64 40
  %61 = load ptr, ptr %60, align 8
  %.not56 = icmp eq ptr %61, null
  br i1 %.not56, label %68, label %62

62:                                               ; preds = %59
  %63 = getelementptr inbounds nuw i8, ptr %61, i64 56
  %64 = load ptr, ptr %63, align 8
  %65 = getelementptr inbounds nuw i8, ptr %64, i64 48
  store ptr %48, ptr %65, align 8
  %66 = load ptr, ptr %60, align 8
  %67 = getelementptr inbounds nuw i8, ptr %66, i64 56
  store ptr %48, ptr %67, align 8
  br label %88

68:                                               ; preds = %59
  store ptr %48, ptr %60, align 8
  br label %88

69:                                               ; preds = %46
  %70 = load i32, ptr %2, align 8
  %71 = load ptr, ptr %5, align 8
  %72 = getelementptr inbounds nuw i8, ptr %71, i64 24
  %73 = load i32, ptr %72, align 8
  %74 = getelementptr inbounds nuw i8, ptr %71, i64 28
  %75 = load i32, ptr %74, align 4
  %76 = load ptr, ptr %0, align 8
  %77 = call noalias dereferenceable_or_null(72) ptr @wmem_alloc(ptr noundef %76, i64 noundef 72) #11
  %78 = getelementptr inbounds nuw i8, ptr %77, i64 8
  store ptr %0, ptr %78, align 8
  %79 = load ptr, ptr %34, align 8
  %80 = getelementptr inbounds nuw i8, ptr %77, i64 16
  store ptr %79, ptr %80, align 8
  store i32 %70, ptr %77, align 8
  %81 = getelementptr inbounds nuw i8, ptr %77, i64 24
  store i32 %73, ptr %81, align 8
  %82 = getelementptr inbounds nuw i8, ptr %77, i64 28
  store i32 %75, ptr %82, align 4
  %83 = getelementptr inbounds nuw i8, ptr %77, i64 32
  %84 = getelementptr inbounds nuw i8, ptr %77, i64 64
  call void @llvm.memset.p0.i64(ptr noundef nonnull align 8 dereferenceable(24) %83, i8 0, i64 24, i1 false)
  store ptr %2, ptr %84, align 8
  %85 = getelementptr inbounds nuw i8, ptr %77, i64 56
  store ptr %77, ptr %85, align 8
  %86 = load ptr, ptr %5, align 8
  %87 = getelementptr inbounds nuw i8, ptr %77, i64 40
  store ptr %86, ptr %87, align 8
  br label %88

88:                                               ; preds = %62, %68, %69
  %.4 = phi ptr [ %.14377, %62 ], [ %.14377, %68 ], [ %77, %69 ]
  %89 = add i32 %44, %.04576
  %90 = add nuw i32 %.04875, 1
  call void @llvm.lifetime.end.p0(i64 8, ptr nonnull %5) #12
  %91 = load i32, ptr %31, align 8
  %92 = icmp ult i32 %90, %91
  br i1 %92, label %35, label %.loopexit

.loopexit:                                        ; preds = %88, %30, %.thread61
  %.04874 = phi i32 [ %.04875, %.thread61 ], [ 0, %30 ], [ %90, %88 ]
  %.04571 = phi i32 [ %.04576, %.thread61 ], [ %1, %30 ], [ %89, %88 ]
  %.14368 = phi ptr [ %.14377, %.thread61 ], [ %.042, %30 ], [ %.4, %88 ]
  %93 = load i32, ptr %10, align 8
  %94 = add i32 %93, -1
  store i32 %94, ptr %10, align 8
  %95 = load i32, ptr %15, align 4
  %96 = icmp ult i32 %.04874, %95
  br i1 %96, label %99, label %97

97:                                               ; preds = %.loopexit
  store ptr %.14368, ptr %3, align 8
  %98 = sub i32 %.04571, %1
  br label %99

99:                                               ; preds = %.thread, %.loopexit, %9, %4, %97
  %.0 = phi i32 [ %98, %97 ], [ -1, %4 ], [ -1, %9 ], [ -1, %.loopexit ], [ -1, %.thread ]
  ret i32 %.0
}